target datalayout = "e-m:e-p270:32:32-p271:32:32-p272:64:64-i64:64-i128:128-f80:128-n8:16:32:64-S128"
target triple = "x86_64-pc-linux-gnu"

; Function Attrs: mustprogress uwtable
define void @_ZN6LibRaw17crxLoadDecodeLoopEPvi(ptr noundef nonnull align 8 dereferenceable(767680) %0, ptr noundef %1, i32 noundef %2) unnamed_addr #0 align 2 {
  %4 = alloca ptr, align 8
  %5 = alloca ptr, align 8
  %6 = alloca i32, align 4
  %7 = alloca i32, align 4
  store ptr %0, ptr %4, align 8, !tbaa !185
  store ptr %1, ptr %5, align 8, !tbaa !162
  store i32 %2, ptr %6, align 4, !tbaa !20
  %8 = load ptr, ptr %4, align 8
  call void @llvm.lifetime.start.p0(i64 4, ptr %7) #19
  store i32 0, ptr %7, align 4, !tbaa !20
  br label %9

9:                                                ; preds = %21, %3
  %10 = load i32, ptr %7, align 4, !tbaa !20
  %11 = load i32, ptr %6, align 4, !tbaa !20
  %12 = icmp slt i32 %10, %11
  br i1 %12, label %14, label %13

13:                                               ; preds = %9
  call void @llvm.lifetime.end.p0(i64 4, ptr %7) #19
  br label %24

14:                                               ; preds = %9
  %15 = load ptr, ptr %5, align 8, !tbaa !162
  %16 = load i32, ptr %7, align 4, !tbaa !20
  %17 = call noundef i32 @_ZN6LibRaw14crxDecodePlaneEPvj(ptr noundef nonnull align 8 dereferenceable(767680) %8, ptr noundef %15, i32 noundef %16)
  %18 = icmp ne i32 %17, 0
  br i1 %18, label %19, label %20

19:                                               ; preds = %14
  call void @_ZN6LibRaw6derrorEv(ptr noundef nonnull align 8 dereferenceable(767680) %8)
  br label %20

20:                                               ; preds = %19, %14
  br label %21

21:                                               ; preds = %20
  %22 = load i32, ptr %7, align 4, !tbaa !20
  %23 = add nsw i32 %22, 1
  store i32 %23, ptr %7, align 4, !tbaa !20
  br label %9, !llvm.loop !254

24:                                               ; preds = %13
  ret void
}