; Function Attrs: mustprogress uwtable
define void @_ZN6LibRaw17crxLoadDecodeLoopEPvi(ptr noundef nonnull align 8 dereferenceable(767680) %0, ptr noundef readonly captures(none) %1, i32 noundef %2) unnamed_addr #0 align 2 {
  %4 = icmp sgt i32 %2, 0
  br i1 %4, label %.lr.ph, label %._crit_edge

._crit_edge:                                      ; preds = %7, %3
  ret void

.lr.ph:                                           ; preds = %3, %7
  %.05 = phi i32 [ %8, %7 ], [ 0, %3 ]
  %5 = tail call noundef i32 @_ZN6LibRaw14crxDecodePlaneEPvj(ptr nonnull align 8 poison, ptr noundef %1, i32 noundef %.05)
  %.not = icmp eq i32 %5, 0
  br i1 %.not, label %7, label %6

6:                                                ; preds = %.lr.ph
  tail call void @_ZN6LibRaw6derrorEv(ptr noundef nonnull align 8 dereferenceable(767680) %0)
  br label %7

7:                                                ; preds = %.lr.ph, %6
  %8 = add nuw nsw i32 %.05, 1
  %exitcond.not = icmp eq i32 %8, %2
  br i1 %exitcond.not, label %._crit_edge, label %.lr.ph, !llvm.loop !224
}